target datalayout = "e-m:e-p270:32:32-p271:32:32-p272:64:64-i64:64-i128:128-f80:128-n8:16:32:64-S128"
target triple = "x86_64-pc-linux-gnu"

%struct.ssl_connection_st = type { %struct.ssl_st, ptr, i32, ptr, ptr, ptr, i32, ptr, i32, i32, i32, i32, %struct.OSSL_TIME, %struct.OSSL_TIME, %struct.ossl_statem_st, i32, ptr, ptr, i64, i64, i64, %struct.ossl_quic_tls_callbacks_st, ptr, ptr, %struct.anon, ptr, ptr, ptr, i32, ptr, %struct.ssl_dane_st, ptr, ptr, ptr, ptr, i32, [64 x i8], [64 x i8], [64 x i8], [64 x i8], [64 x i8], [64 x i8], [64 x i8], [64 x i8], [64 x i8], [64 x i8], [64 x i8], [64 x i8], ptr, [64 x i8], i64, i32, i64, [32 x i8], ptr, ptr, ptr, i64, ptr, [32 x i8], i64, i32, ptr, ptr, i32, i32, ptr, ptr, ptr, ptr, ptr, i64, ptr, ptr, i64, i32, i32, i32, i64, i32, i32, i64, i64, i64, %struct.anon.1, ptr, i32, ptr, ptr, ptr, i32, ptr, ptr, ptr, i32, i32, i32, i32, ptr, i64, i32, ptr, %struct.srp_ctx_st, ptr, %struct.record_layer_st, ptr, ptr, ptr, ptr, i64, i32, i32, i32, i64, i64, i64, ptr, ptr, ptr, ptr, ptr, i64, ptr, i64, ptr, i64 }
%struct.ssl_st = type { i32, ptr, ptr, ptr, %struct.CRYPTO_REF_COUNT, ptr, %struct.crypto_ex_data_st }
%struct.CRYPTO_REF_COUNT = type { i32 }
%struct.crypto_ex_data_st = type { ptr, ptr }
%struct.OSSL_TIME = type { i64 }
%struct.ossl_statem_st = type { i32, i32, i32, i32, i32, i32, i32, i32, i32, i32, i32, i32, i32, ptr, ptr, ptr, i8 }
%struct.ossl_quic_tls_callbacks_st = type { ptr, ptr, ptr, ptr, ptr, ptr }
%struct.anon = type { i64, [32 x i8], [32 x i8], ptr, ptr, i32, i32, i32, i32, [2 x i8], i32, i32, i32, i32, %struct.anon.0, [64 x i8], i64, [64 x i8], i64, i32, i32, ptr, i64, ptr, i64, i32, i8, i8, i16, ptr, i16 }
%struct.anon.0 = type { [128 x i8], i64, [128 x i8], i64, i64, i32, ptr, ptr, [4 x ptr], [4 x i16], i64, i32, ptr, i64, ptr, i64, ptr, ptr, ptr, i32, i64, ptr, i32, ptr, i64, ptr, i64, ptr, i64, ptr, ptr, ptr, ptr, i64, i64, ptr, ptr, i32, i32, i32, i32 }
%struct.ssl_dane_st = type { ptr, ptr, ptr, ptr, ptr, i32, i32, i32, i64 }
%struct.anon.1 = type { [29 x i8], ptr, ptr, ptr, i32, ptr, i16, i32, %struct.anon.2, i32, i32, i64, ptr, i64, ptr, i64, ptr, i64, ptr, i64, ptr, i64, ptr, ptr, ptr, ptr, ptr, ptr, ptr, i64, ptr, i64, i32, i32, i32, i32, ptr, i64, i32, i8, i32, [4 x i32], i32, i8, i8, i8, i8 }
%struct.anon.2 = type { ptr, ptr, ptr, i64 }
%struct.srp_ctx_st = type { ptr, ptr, ptr, ptr, ptr, ptr, ptr, ptr, ptr, ptr, ptr, ptr, ptr, ptr, i32, i64 }
%struct.record_layer_st = type { ptr, ptr, ptr, ptr, ptr, ptr, ptr, ptr, i64, i32, i64, [4 x i8], i64, i64, i8, ptr, i32, ptr, ptr, ptr, i64, i64, i64, i64, [32 x %struct.tls_record_st] }
%struct.tls_record_st = type { ptr, i32, i8, ptr, ptr, i64, i64, i16, [8 x i8] }
%struct.ssl_method_st = type { i32, i32, i64, ptr, ptr, ptr, ptr, ptr, ptr, ptr, ptr, ptr, ptr, ptr, ptr, ptr, ptr, ptr, ptr, ptr, ptr, ptr, ptr, ptr, ptr, ptr, ptr, ptr, ptr, ptr, ptr, ptr }
%struct.ssl3_enc_method = type { ptr, ptr, ptr, ptr, ptr, i64, ptr, i64, ptr, ptr, i32, ptr, ptr, ptr }
%struct.ssl_ctx_st = type { ptr, ptr, ptr, ptr, ptr, ptr, ptr, i64, ptr, ptr, i32, %struct.OSSL_TIME, ptr, ptr, ptr, %struct.anon.4, %struct.CRYPTO_REF_COUNT, ptr, ptr, ptr, ptr, ptr, ptr, ptr, ptr, ptr, %struct.crypto_ex_data_st, ptr, ptr, ptr, ptr, ptr, ptr, ptr, i64, i32, i32, i32, i64, ptr, ptr, i32, ptr, ptr, i32, i64, [32 x i8], ptr, ptr, ptr, i32, ptr, ptr, ptr, i64, i64, i64, i64, ptr, ptr, ptr, ptr, ptr, %struct.anon.5, ptr, ptr, ptr, ptr, %struct.srp_ctx_st, %struct.dane_ctx_st, ptr, ptr, ptr, ptr, i32, i32, ptr, ptr, i64, i64, ptr, ptr, ptr, i64, ptr, ptr, i32, ptr, ptr, ptr, [14 x i32], [24 x ptr], [14 x ptr], [14 x i64], i64, ptr, ptr, ptr, i64, i64, ptr, i64, i64, i32, i32, i32, i32, ptr, i64, ptr, i64, i64, ptr, ptr }
%struct.anon.4 = type { i32, i32, i32, i32, i32, i32, i32, i32, i32, i32, i32 }
%struct.anon.5 = type { ptr, ptr, [16 x i8], ptr, ptr, ptr, ptr, ptr, i32, i8, i64, ptr, i64, ptr, i64, ptr, i64, ptr, ptr, i64, ptr, ptr, ptr, i64, ptr, ptr, ptr, ptr, [32 x i8] }
%struct.dane_ctx_st = type { ptr, ptr, i8, i64 }

@.str.2 = private unnamed_addr constant [24 x i8] c"../openssl/ssl/s3_lib.c\00", align 1
@__func__.ssl_encapsulate = private unnamed_addr constant [16 x i8] c"ssl_encapsulate\00", align 1

; Function Attrs: nounwind uwtable
define i32 @ssl_gensecret(ptr noundef %0, ptr noundef %1, i64 noundef %2) #0 {
  %4 = alloca ptr, align 8
  %5 = alloca ptr, align 8
  %6 = alloca i64, align 8
  %7 = alloca i32, align 4
  store ptr %0, ptr %4, align 8, !tbaa !13
  store ptr %1, ptr %5, align 8, !tbaa !15
  store i64 %2, ptr %6, align 8, !tbaa !16
  call void @llvm.lifetime.start.p0(i64 4, ptr %7) #10
  store i32 0, ptr %7, align 4, !tbaa !18
  %8 = load ptr, ptr %4, align 8, !tbaa !13
  %9 = getelementptr inbounds nuw %struct.ssl_connection_st, ptr %8, i32 0, i32 0
  %10 = getelementptr inbounds nuw %struct.ssl_st, ptr %9, i32 0, i32 3
  %11 = load ptr, ptr %10, align 8, !tbaa !147
  %12 = getelementptr inbounds nuw %struct.ssl_method_st, ptr %11, i32 0, i32 28
  %13 = load ptr, ptr %12, align 8, !tbaa !148
  %14 = getelementptr inbounds nuw %struct.ssl3_enc_method, ptr %13, i32 0, i32 10
  %15 = load i32, ptr %14, align 8, !tbaa !149
  %16 = and i32 %15, 8
  %17 = icmp ne i32 %16, 0
  br i1 %17, label %59, label %18

18:                                               ; preds = %3
  %19 = load ptr, ptr %4, align 8, !tbaa !13
  %20 = getelementptr inbounds nuw %struct.ssl_connection_st, ptr %19, i32 0, i32 0
  %21 = getelementptr inbounds nuw %struct.ssl_st, ptr %20, i32 0, i32 3
  %22 = load ptr, ptr %21, align 8, !tbaa !147
  %23 = getelementptr inbounds nuw %struct.ssl_method_st, ptr %22, i32 0, i32 0
  %24 = load i32, ptr %23, align 8, !tbaa !151
  %25 = icmp sge i32 %24, 772
  br i1 %25, label %26, label %59

26:                                               ; preds = %18
  %27 = load ptr, ptr %4, align 8, !tbaa !13
  %28 = getelementptr inbounds nuw %struct.ssl_connection_st, ptr %27, i32 0, i32 0
  %29 = getelementptr inbounds nuw %struct.ssl_st, ptr %28, i32 0, i32 3
  %30 = load ptr, ptr %29, align 8, !tbaa !147
  %31 = getelementptr inbounds nuw %struct.ssl_method_st, ptr %30, i32 0, i32 0
  %32 = load i32, ptr %31, align 8, !tbaa !151
  %33 = icmp ne i32 %32, 65536
  br i1 %33, label %34, label %59

34:                                               ; preds = %26
  %35 = load ptr, ptr %4, align 8, !tbaa !13
  %36 = getelementptr inbounds nuw %struct.ssl_connection_st, ptr %35, i32 0, i32 28
  %37 = load i32, ptr %36, align 8, !tbaa !265
  %38 = icmp ne i32 %37, 0
  br i1 %38, label %46, label %39

39:                                               ; preds = %34
  %40 = load ptr, ptr %4, align 8, !tbaa !13
  %41 = load ptr, ptr %4, align 8, !tbaa !13
  %42 = call ptr @ssl_handshake_md(ptr noundef %41)
  %43 = load ptr, ptr %4, align 8, !tbaa !13
  %44 = getelementptr inbounds nuw %struct.ssl_connection_st, ptr %43, i32 0, i32 36
  %45 = call i32 @tls13_generate_secret(ptr noundef %40, ptr noundef %42, ptr noundef null, ptr noundef null, i64 noundef 0, ptr noundef %44)
  store i32 %45, ptr %7, align 4, !tbaa !18
  br label %47

46:                                               ; preds = %34
  store i32 1, ptr %7, align 4, !tbaa !18
  br label %47

47:                                               ; preds = %46, %39
  %48 = load i32, ptr %7, align 4, !tbaa !18
  %49 = icmp ne i32 %48, 0
  br i1 %49, label %50, label %56

50:                                               ; preds = %47
  %51 = load ptr, ptr %4, align 8, !tbaa !13
  %52 = load ptr, ptr %5, align 8, !tbaa !15
  %53 = load i64, ptr %6, align 8, !tbaa !16
  %54 = call i32 @tls13_generate_handshake_secret(ptr noundef %51, ptr noundef %52, i64 noundef %53)
  %55 = icmp ne i32 %54, 0
  br label %56

56:                                               ; preds = %50, %47
  %57 = phi i1 [ false, %47 ], [ %55, %50 ]
  %58 = zext i1 %57 to i32
  store i32 %58, ptr %7, align 4, !tbaa !18
  br label %64

59:                                               ; preds = %26, %18, %3
  %60 = load ptr, ptr %4, align 8, !tbaa !13
  %61 = load ptr, ptr %5, align 8, !tbaa !15
  %62 = load i64, ptr %6, align 8, !tbaa !16
  %63 = call i32 @ssl_generate_master_secret(ptr noundef %60, ptr noundef %61, i64 noundef %62, i32 noundef 0)
  store i32 %63, ptr %7, align 4, !tbaa !18
  br label %64

64:                                               ; preds = %59, %56
  %65 = load i32, ptr %7, align 4, !tbaa !18
  call void @llvm.lifetime.end.p0(i64 4, ptr %7) #10
  ret i32 %65
}

; Function Attrs: nounwind uwtable
define i32 @ssl_encapsulate(ptr noundef %0, ptr noundef %1, ptr noundef %2, ptr noundef %3, i32 noundef %4) #0 {
  %6 = alloca i32, align 4
  %7 = alloca ptr, align 8
  %8 = alloca ptr, align 8
  %9 = alloca ptr, align 8
  %10 = alloca ptr, align 8
  %11 = alloca i32, align 4
  %12 = alloca i32, align 4
  %13 = alloca ptr, align 8
  %14 = alloca ptr, align 8
  %15 = alloca i64, align 8
  %16 = alloca i64, align 8
  %17 = alloca ptr, align 8
  %18 = alloca ptr, align 8
  %19 = alloca i32, align 4
  store ptr %0, ptr %7, align 8, !tbaa !13
  store ptr %1, ptr %8, align 8, !tbaa !87
  store ptr %2, ptr %9, align 8, !tbaa !157
  store ptr %3, ptr %10, align 8, !tbaa !218
  store i32 %4, ptr %11, align 4, !tbaa !18
  call void @llvm.lifetime.start.p0(i64 4, ptr %12) #10
  store i32 0, ptr %12, align 4, !tbaa !18
  call void @llvm.lifetime.start.p0(i64 8, ptr %13) #10
  store ptr null, ptr %13, align 8, !tbaa !15
  call void @llvm.lifetime.start.p0(i64 8, ptr %14) #10
  store ptr null, ptr %14, align 8, !tbaa !15
  call void @llvm.lifetime.start.p0(i64 8, ptr %15) #10
  store i64 0, ptr %15, align 8, !tbaa !16
  call void @llvm.lifetime.start.p0(i64 8, ptr %16) #10
  store i64 0, ptr %16, align 8, !tbaa !16
  call void @llvm.lifetime.start.p0(i64 8, ptr %17) #10
  call void @llvm.lifetime.start.p0(i64 8, ptr %18) #10
  %20 = load ptr, ptr %7, align 8, !tbaa !13
  %21 = getelementptr inbounds nuw %struct.ssl_connection_st, ptr %20, i32 0, i32 0
  %22 = getelementptr inbounds nuw %struct.ssl_st, ptr %21, i32 0, i32 1
  %23 = load ptr, ptr %22, align 8, !tbaa !240
  store ptr %23, ptr %18, align 8, !tbaa !176
  %24 = load ptr, ptr %8, align 8, !tbaa !87
  %25 = icmp eq ptr %24, null
  br i1 %25, label %26, label %28

26:                                               ; preds = %5
  call void @ERR_new()
  call void @ERR_set_debug(ptr noundef @.str.2, i32 noundef 5119, ptr noundef @__func__.ssl_encapsulate)
  %27 = load ptr, ptr %7, align 8, !tbaa !13
  call void (ptr, i32, i32, ptr, ...) @ossl_statem_fatal(ptr noundef %27, i32 noundef 80, i32 noundef 786691, ptr noundef null)
  store i32 0, ptr %6, align 4
  store i32 1, ptr %19, align 4
  br label %106

28:                                               ; preds = %5
  %29 = load ptr, ptr %18, align 8, !tbaa !176
  %30 = getelementptr inbounds nuw %struct.ssl_ctx_st, ptr %29, i32 0, i32 0
  %31 = load ptr, ptr %30, align 8, !tbaa !257
  %32 = load ptr, ptr %8, align 8, !tbaa !87
  %33 = load ptr, ptr %18, align 8, !tbaa !176
  %34 = getelementptr inbounds nuw %struct.ssl_ctx_st, ptr %33, i32 0, i32 89
  %35 = load ptr, ptr %34, align 8, !tbaa !262
  %36 = call ptr @EVP_PKEY_CTX_new_from_pkey(ptr noundef %31, ptr noundef %32, ptr noundef %35)
  store ptr %36, ptr %17, align 8, !tbaa !260
  %37 = load ptr, ptr %17, align 8, !tbaa !260
  %38 = call i32 @EVP_PKEY_encapsulate_init(ptr noundef %37, ptr noundef null)
  %39 = icmp sle i32 %38, 0
  br i1 %39, label %50, label %40

40:                                               ; preds = %28
  %41 = load ptr, ptr %17, align 8, !tbaa !260
  %42 = call i32 @EVP_PKEY_encapsulate(ptr noundef %41, ptr noundef null, ptr noundef %16, ptr noundef null, ptr noundef %15)
  %43 = icmp sle i32 %42, 0
  br i1 %43, label %50, label %44

44:                                               ; preds = %40
  %45 = load i64, ptr %15, align 8, !tbaa !16
  %46 = icmp eq i64 %45, 0
  br i1 %46, label %50, label %47

47:                                               ; preds = %44
  %48 = load i64, ptr %16, align 8, !tbaa !16
  %49 = icmp eq i64 %48, 0
  br i1 %49, label %50, label %52

50:                                               ; preds = %47, %44, %40, %28
  call void @ERR_new()
  call void @ERR_set_debug(ptr noundef @.str.2, i32 noundef 5128, ptr noundef @__func__.ssl_encapsulate)
  %51 = load ptr, ptr %7, align 8, !tbaa !13
  call void (ptr, i32, i32, ptr, ...) @ossl_statem_fatal(ptr noundef %51, i32 noundef 80, i32 noundef 786691, ptr noundef null)
  br label %100

52:                                               ; preds = %47
  %53 = load i64, ptr %15, align 8, !tbaa !16
  %54 = call noalias ptr @CRYPTO_malloc(i64 noundef %53, ptr noundef @.str.2, i32 noundef 5132)
  store ptr %54, ptr %13, align 8, !tbaa !15
  %55 = load i64, ptr %16, align 8, !tbaa !16
  %56 = call noalias ptr @CRYPTO_malloc(i64 noundef %55, ptr noundef @.str.2, i32 noundef 5133)
  store ptr %56, ptr %14, align 8, !tbaa !15
  %57 = load ptr, ptr %13, align 8, !tbaa !15
  %58 = icmp eq ptr %57, null
  br i1 %58, label %62, label %59

59:                                               ; preds = %52
  %60 = load ptr, ptr %14, align 8, !tbaa !15
  %61 = icmp eq ptr %60, null
  br i1 %61, label %62, label %64

62:                                               ; preds = %59, %52
  call void @ERR_new()
  call void @ERR_set_debug(ptr noundef @.str.2, i32 noundef 5135, ptr noundef @__func__.ssl_encapsulate)
  %63 = load ptr, ptr %7, align 8, !tbaa !13
  call void (ptr, i32, i32, ptr, ...) @ossl_statem_fatal(ptr noundef %63, i32 noundef 80, i32 noundef 524303, ptr noundef null)
  br label %100

64:                                               ; preds = %59
  %65 = load ptr, ptr %17, align 8, !tbaa !260
  %66 = load ptr, ptr %14, align 8, !tbaa !15
  %67 = load ptr, ptr %13, align 8, !tbaa !15
  %68 = call i32 @EVP_PKEY_encapsulate(ptr noundef %65, ptr noundef %66, ptr noundef %16, ptr noundef %67, ptr noundef %15)
  %69 = icmp sle i32 %68, 0
  br i1 %69, label %70, label %72

70:                                               ; preds = %64
  call void @ERR_new()
  call void @ERR_set_debug(ptr noundef @.str.2, i32 noundef 5140, ptr noundef @__func__.ssl_encapsulate)
  %71 = load ptr, ptr %7, align 8, !tbaa !13
  call void (ptr, i32, i32, ptr, ...) @ossl_statem_fatal(ptr noundef %71, i32 noundef 80, i32 noundef 786691, ptr noundef null)
  br label %100

72:                                               ; preds = %64
  %73 = load i32, ptr %11, align 4, !tbaa !18
  %74 = icmp ne i32 %73, 0
  br i1 %74, label %75, label %80

75:                                               ; preds = %72
  %76 = load ptr, ptr %7, align 8, !tbaa !13
  %77 = load ptr, ptr %13, align 8, !tbaa !15
  %78 = load i64, ptr %15, align 8, !tbaa !16
  %79 = call i32 @ssl_gensecret(ptr noundef %76, ptr noundef %77, i64 noundef %78)
  store i32 %79, ptr %12, align 4, !tbaa !18
  br label %91

80:                                               ; preds = %72
  %81 = load ptr, ptr %13, align 8, !tbaa !15
  %82 = load ptr, ptr %7, align 8, !tbaa !13
  %83 = getelementptr inbounds nuw %struct.ssl_connection_st, ptr %82, i32 0, i32 24
  %84 = getelementptr inbounds nuw %struct.anon, ptr %83, i32 0, i32 14
  %85 = getelementptr inbounds nuw %struct.anon.0, ptr %84, i32 0, i32 25
  store ptr %81, ptr %85, align 8, !tbaa !96
  %86 = load i64, ptr %15, align 8, !tbaa !16
  %87 = load ptr, ptr %7, align 8, !tbaa !13
  %88 = getelementptr inbounds nuw %struct.ssl_connection_st, ptr %87, i32 0, i32 24
  %89 = getelementptr inbounds nuw %struct.anon, ptr %88, i32 0, i32 14
  %90 = getelementptr inbounds nuw %struct.anon.0, ptr %89, i32 0, i32 26
  store i64 %86, ptr %90, align 8, !tbaa !97
  store ptr null, ptr %13, align 8, !tbaa !15
  store i32 1, ptr %12, align 4, !tbaa !18
  br label %91

91:                                               ; preds = %80, %75
  %92 = load i32, ptr %12, align 4, !tbaa !18
  %93 = icmp sgt i32 %92, 0
  br i1 %93, label %94, label %99

94:                                               ; preds = %91
  %95 = load ptr, ptr %14, align 8, !tbaa !15
  %96 = load ptr, ptr %9, align 8, !tbaa !157
  store ptr %95, ptr %96, align 8, !tbaa !15
  %97 = load i64, ptr %16, align 8, !tbaa !16
  %98 = load ptr, ptr %10, align 8, !tbaa !218
  store i64 %97, ptr %98, align 8, !tbaa !16
  store ptr null, ptr %14, align 8, !tbaa !15
  br label %99

99:                                               ; preds = %94, %91
  br label %100

100:                                              ; preds = %99, %70, %62, %50
  %101 = load ptr, ptr %13, align 8, !tbaa !15
  %102 = load i64, ptr %15, align 8, !tbaa !16
  call void @CRYPTO_clear_free(ptr noundef %101, i64 noundef %102, ptr noundef @.str.2, i32 noundef 5163)
  %103 = load ptr, ptr %14, align 8, !tbaa !15
  call void @CRYPTO_free(ptr noundef %103, ptr noundef @.str.2, i32 noundef 5164)
  %104 = load ptr, ptr %17, align 8, !tbaa !260
  call void @EVP_PKEY_CTX_free(ptr noundef %104)
  %105 = load i32, ptr %12, align 4, !tbaa !18
  store i32 %105, ptr %6, align 4
  store i32 1, ptr %19, align 4
  br label %106

106:                                              ; preds = %100, %26
  call void @llvm.lifetime.end.p0(i64 8, ptr %18) #10
  call void @llvm.lifetime.end.p0(i64 8, ptr %17) #10
  call void @llvm.lifetime.end.p0(i64 8, ptr %16) #10
  call void @llvm.lifetime.end.p0(i64 8, ptr %15) #10
  call void @llvm.lifetime.end.p0(i64 8, ptr %14) #10
  call void @llvm.lifetime.end.p0(i64 8, ptr %13) #10
  call void @llvm.lifetime.end.p0(i64 4, ptr %12) #10
  %107 = load i32, ptr %6, align 4
  ret i32 %107
}