; Function Attrs: nounwind uwtable
define range(i32 0, 2) i32 @ssl_encapsulate(ptr noundef %0, ptr noundef %1, ptr noundef writeonly captures(none) %2, ptr noundef writeonly captures(none) %3, i32 noundef %4) local_unnamed_addr #4 {
  %6 = alloca i64, align 8
  %7 = alloca i64, align 8
  call void @llvm.lifetime.start.p0(i64 8, ptr nonnull %6) #18
  store i64 0, ptr %6, align 8, !tbaa !198
  call void @llvm.lifetime.start.p0(i64 8, ptr nonnull %7) #18
  store i64 0, ptr %7, align 8, !tbaa !198
  %8 = icmp eq ptr %1, null
  br i1 %8, label %9, label %10

9:                                                ; preds = %5
  tail call void @ERR_new() #18
  tail call void @ERR_set_debug(ptr noundef nonnull @.str.2, i32 noundef 5119, ptr noundef nonnull @__func__.ssl_encapsulate) #18
  tail call void (ptr, i32, i32, ptr, ...) @ossl_statem_fatal(ptr noundef %0, i32 noundef 80, i32 noundef 786691, ptr noundef null) #18
  br label %69

10:                                               ; preds = %5
  %11 = getelementptr inbounds nuw i8, ptr %0, i64 8
  %12 = load ptr, ptr %11, align 8, !tbaa !222
  %13 = load ptr, ptr %12, align 8, !tbaa !235
  %14 = getelementptr inbounds nuw i8, ptr %12, i64 1152
  %15 = load ptr, ptr %14, align 8, !tbaa !239
  %16 = tail call ptr @EVP_PKEY_CTX_new_from_pkey(ptr noundef %13, ptr noundef nonnull %1, ptr noundef %15) #18
  %17 = tail call i32 @EVP_PKEY_encapsulate_init(ptr noundef %16, ptr noundef null) #18
  %18 = icmp slt i32 %17, 1
  br i1 %18, label %26, label %19

19:                                               ; preds = %10
  %20 = call i32 @EVP_PKEY_encapsulate(ptr noundef %16, ptr noundef null, ptr noundef nonnull %7, ptr noundef null, ptr noundef nonnull %6) #18
  %21 = icmp slt i32 %20, 1
  %22 = load i64, ptr %6, align 8
  %23 = icmp eq i64 %22, 0
  %or.cond = select i1 %21, i1 true, i1 %23
  %24 = load i64, ptr %7, align 8
  %25 = icmp eq i64 %24, 0
  %or.cond3 = select i1 %or.cond, i1 true, i1 %25
  br i1 %or.cond3, label %26, label %27

26:                                               ; preds = %19, %10
  call void @ERR_new() #18
  call void @ERR_set_debug(ptr noundef nonnull @.str.2, i32 noundef 5128, ptr noundef nonnull @__func__.ssl_encapsulate) #18
  call void (ptr, i32, i32, ptr, ...) @ossl_statem_fatal(ptr noundef nonnull %0, i32 noundef 80, i32 noundef 786691, ptr noundef null) #18
  br label %.thread46

27:                                               ; preds = %19
  %28 = call noalias ptr @CRYPTO_malloc(i64 noundef %22, ptr noundef nonnull @.str.2, i32 noundef 5132) #18
  %29 = load i64, ptr %7, align 8, !tbaa !198
  %30 = call noalias ptr @CRYPTO_malloc(i64 noundef %29, ptr noundef nonnull @.str.2, i32 noundef 5133) #18
  %31 = icmp eq ptr %28, null
  %32 = icmp eq ptr %30, null
  %or.cond5 = select i1 %31, i1 true, i1 %32
  br i1 %or.cond5, label %33, label %34

33:                                               ; preds = %27
  call void @ERR_new() #18
  call void @ERR_set_debug(ptr noundef nonnull @.str.2, i32 noundef 5135, ptr noundef nonnull @__func__.ssl_encapsulate) #18
  call void (ptr, i32, i32, ptr, ...) @ossl_statem_fatal(ptr noundef nonnull %0, i32 noundef 80, i32 noundef 524303, ptr noundef null) #18
  br label %.thread46

34:                                               ; preds = %27
  %35 = call i32 @EVP_PKEY_encapsulate(ptr noundef %16, ptr noundef nonnull %30, ptr noundef nonnull %7, ptr noundef nonnull %28, ptr noundef nonnull %6) #18
  %36 = icmp slt i32 %35, 1
  br i1 %36, label %37, label %38

37:                                               ; preds = %34
  call void @ERR_new() #18
  call void @ERR_set_debug(ptr noundef nonnull @.str.2, i32 noundef 5140, ptr noundef nonnull @__func__.ssl_encapsulate) #18
  call void (ptr, i32, i32, ptr, ...) @ossl_statem_fatal(ptr noundef nonnull %0, i32 noundef 80, i32 noundef 786691, ptr noundef null) #18
  br label %.thread46

38:                                               ; preds = %34
  %.not = icmp eq i32 %4, 0
  br i1 %.not, label %.thread, label %39

39:                                               ; preds = %38
  %40 = load i64, ptr %6, align 8, !tbaa !198
  %41 = getelementptr inbounds nuw i8, ptr %0, i64 24
  %42 = load ptr, ptr %41, align 8, !tbaa !133
  %43 = getelementptr inbounds nuw i8, ptr %42, i64 216
  %44 = load ptr, ptr %43, align 8, !tbaa !134
  %45 = getelementptr inbounds nuw i8, ptr %44, i64 80
  %46 = load i32, ptr %45, align 8, !tbaa !135
  %47 = and i32 %46, 8
  %.not.i = icmp eq i32 %47, 0
  br i1 %.not.i, label %48, label %60

48:                                               ; preds = %39
  %49 = load i32, ptr %42, align 8, !tbaa !137
  %50 = icmp slt i32 %49, 772
  %.not15.i = icmp eq i32 %49, 65536
  %or.cond.i = or i1 %50, %.not15.i
  br i1 %or.cond.i, label %60, label %51

51:                                               ; preds = %48
  %52 = getelementptr inbounds nuw i8, ptr %0, i64 1288
  %53 = load i32, ptr %52, align 8, !tbaa !242
  %.not16.i = icmp eq i32 %53, 0
  br i1 %.not16.i, label %54, label %.critedge.i

54:                                               ; preds = %51
  %55 = call ptr @ssl_handshake_md(ptr noundef nonnull %0) #18
  %56 = getelementptr inbounds nuw i8, ptr %0, i64 1404
  %57 = call i32 @tls13_generate_secret(ptr noundef nonnull %0, ptr noundef %55, ptr noundef null, ptr noundef null, i64 noundef 0, ptr noundef nonnull %56) #18
  %58 = icmp eq i32 %57, 0
  br i1 %58, label %.thread46, label %.critedge.i

.critedge.i:                                      ; preds = %54, %51
  %59 = call i32 @tls13_generate_handshake_secret(ptr noundef nonnull %0, ptr noundef nonnull %28, i64 noundef %40) #18
  br label %65

60:                                               ; preds = %48, %39
  %61 = call i32 @ssl_generate_master_secret(ptr noundef nonnull %0, ptr noundef nonnull %28, i64 noundef %40, i32 noundef 0)
  br label %65

.thread:                                          ; preds = %38
  %62 = getelementptr inbounds nuw i8, ptr %0, i64 944
  store ptr %28, ptr %62, align 8, !tbaa !86
  %63 = load i64, ptr %6, align 8, !tbaa !198
  %64 = getelementptr inbounds nuw i8, ptr %0, i64 952
  store i64 %63, ptr %64, align 8, !tbaa !87
  br label %66

65:                                               ; preds = %60, %.critedge.i
  %.1.i.in = phi i32 [ %61, %60 ], [ %59, %.critedge.i ]
  %.1.i = icmp eq i32 %.1.i.in, 0
  br i1 %.1.i, label %.thread46, label %66

66:                                               ; preds = %.thread, %65
  %.13845 = phi ptr [ null, %.thread ], [ %28, %65 ]
  store ptr %30, ptr %2, align 8, !tbaa !114
  %67 = load i64, ptr %7, align 8, !tbaa !198
  store i64 %67, ptr %3, align 8, !tbaa !198
  br label %.thread46

.thread46:                                        ; preds = %54, %65, %66, %37, %33, %26
  %.037 = phi ptr [ null, %26 ], [ %28, %33 ], [ %28, %37 ], [ %.13845, %66 ], [ %28, %65 ], [ %28, %54 ]
  %.036 = phi ptr [ null, %26 ], [ %30, %33 ], [ %30, %37 ], [ null, %66 ], [ %30, %65 ], [ %30, %54 ]
  %.035 = phi i32 [ 0, %26 ], [ 0, %33 ], [ 0, %37 ], [ 1, %66 ], [ 0, %65 ], [ 0, %54 ]
  %68 = load i64, ptr %6, align 8, !tbaa !198
  call void @CRYPTO_clear_free(ptr noundef %.037, i64 noundef %68, ptr noundef nonnull @.str.2, i32 noundef 5163) #18
  call void @CRYPTO_free(ptr noundef %.036, ptr noundef nonnull @.str.2, i32 noundef 5164) #18
  call void @EVP_PKEY_CTX_free(ptr noundef %16) #18
  br label %69

69:                                               ; preds = %.thread46, %9
  %.0 = phi i32 [ 0, %9 ], [ %.035, %.thread46 ]
  call void @llvm.lifetime.end.p0(i64 8, ptr nonnull %7) #18
  call void @llvm.lifetime.end.p0(i64 8, ptr nonnull %6) #18
  ret i32 %.0
}